; Function Attrs: mustprogress nofree norecurse nosync nounwind willreturn memory(readwrite, inaccessiblemem: none) uwtable
define internal void @fuzz_free_cb(ptr noundef readonly captures(address_is_null) %0) #2 {
  %2 = icmp eq ptr %0, null
  br i1 %2, label %ossl_ht_fz_FUZZER_VALUE_from_value.exit.thread, label %3

3:                                                ; preds = %1
  %4 = getelementptr inbounds nuw i8, ptr %0, i64 8
  %5 = load ptr, ptr %4, align 8, !tbaa !11
  %.not.i = icmp eq ptr %5, @fz_FUZZER_VALUE_id
  br i1 %.not.i, label %ossl_ht_fz_FUZZER_VALUE_from_value.exit, label %ossl_ht_fz_FUZZER_VALUE_from_value.exit.thread

ossl_ht_fz_FUZZER_VALUE_from_value.exit:          ; preds = %3
  %6 = load ptr, ptr %0, align 8, !tbaa !17
  %.not = icmp eq ptr %6, null
  br i1 %.not, label %ossl_ht_fz_FUZZER_VALUE_from_value.exit.thread, label %7

7:                                                ; preds = %ossl_ht_fz_FUZZER_VALUE_from_value.exit
  %8 = load i64, ptr %6, align 8, !tbaa !18
  %9 = and i64 %8, -2
  store i64 %9, ptr %6, align 8, !tbaa !18
  br label %ossl_ht_fz_FUZZER_VALUE_from_value.exit.thread

ossl_ht_fz_FUZZER_VALUE_from_value.exit.thread:   ; preds = %3, %1, %7, %ossl_ht_fz_FUZZER_VALUE_from_value.exit
  ret void
}